; Function Attrs: mustprogress nofree nounwind willreturn memory(read) uwtable
define internal fastcc noundef ptr @_ZN7jsonnet8internalL19left_recursive_deepEPNS0_3ASTE(ptr noundef readonly %0) unnamed_addr #7 {
  %2 = tail call fastcc noundef ptr @_ZN7jsonnet8internalL14left_recursiveEPNS0_3ASTE(ptr noundef %0)
  %.not7 = icmp eq ptr %2, null
  br i1 %.not7, label %._crit_edge, label %.lr.ph

.lr.ph:                                           ; preds = %1, %.lr.ph
  %.08 = phi ptr [ %3, %.lr.ph ], [ %2, %1 ]
  %3 = tail call fastcc noundef ptr @_ZN7jsonnet8internalL14left_recursiveEPNS0_3ASTE(ptr noundef nonnull %.08)
  %.not = icmp eq ptr %3, null
  br i1 %.not, label %._crit_edge, label %.lr.ph, !llvm.loop !52

._crit_edge:                                      ; preds = %.lr.ph, %1
  %.06.lcssa = phi ptr [ %0, %1 ], [ %.08, %.lr.ph ]
  ret ptr %.06.lcssa
}